target datalayout = "e-m:e-p270:32:32-p271:32:32-p272:64:64-i64:64-i128:128-f80:128-n8:16:32:64-S128"
target triple = "x86_64-pc-linux-gnu"

; Function Attrs: mustprogress nounwind uwtable
define noundef i64 @_ZN10VertexData14CornerIndexKeyEPKi(ptr noundef %0) #4 align 2 {
  %2 = alloca ptr, align 8
  store ptr %0, ptr %2, align 8
  %3 = load ptr, ptr %2, align 8
  %4 = getelementptr inbounds i32, ptr %3, i64 0
  %5 = load i32, ptr %4, align 4
  %6 = sext i32 %5 to i64
  %7 = load ptr, ptr %2, align 8
  %8 = getelementptr inbounds i32, ptr %7, i64 1
  %9 = load i32, ptr %8, align 4
  %10 = sext i32 %9 to i64
  %11 = shl i64 %10, 21
  %12 = or i64 %6, %11
  %13 = load ptr, ptr %2, align 8
  %14 = getelementptr inbounds i32, ptr %13, i64 2
  %15 = load i32, ptr %14, align 4
  %16 = sext i32 %15 to i64
  %17 = shl i64 %16, 42
  %18 = or i64 %12, %17
  ret i64 %18
}

; Function Attrs: mustprogress nounwind uwtable
define linkonce_odr noundef i32 @_ZN10BinaryNode11CornerIndexEiiii(i32 noundef %0, i32 noundef %1, i32 noundef %2, i32 noundef %3) #4 comdat align 2 {
  %5 = alloca i32, align 4
  %6 = alloca i32, align 4
  %7 = alloca i32, align 4
  %8 = alloca i32, align 4
  store i32 %0, ptr %5, align 4
  store i32 %1, ptr %6, align 4
  store i32 %2, ptr %7, align 4
  store i32 %3, ptr %8, align 4
  %9 = load i32, ptr %7, align 4
  %10 = load i32, ptr %8, align 4
  %11 = add nsw i32 %9, %10
  %12 = load i32, ptr %5, align 4
  %13 = load i32, ptr %6, align 4
  %14 = sub nsw i32 %12, %13
  %15 = shl i32 %11, %14
  ret i32 %15
}

; Function Attrs: mustprogress uwtable
define noundef i64 @_ZN10VertexData11CornerIndexEiPKiiiPi(i32 noundef %0, ptr noundef %1, i32 noundef %2, i32 noundef %3, ptr noundef %4) #5 align 2 {
  %6 = alloca i32, align 4
  %7 = alloca ptr, align 8
  %8 = alloca i32, align 4
  %9 = alloca i32, align 4
  %10 = alloca ptr, align 8
  %11 = alloca [3 x i32], align 4
  %12 = alloca i32, align 4
  store i32 %0, ptr %6, align 4
  store ptr %1, ptr %7, align 8
  store i32 %2, ptr %8, align 4
  store i32 %3, ptr %9, align 4
  store ptr %4, ptr %10, align 8
  %13 = load i32, ptr %8, align 4
  %14 = getelementptr inbounds [3 x i32], ptr %11, i64 0, i64 0
  %15 = getelementptr inbounds [3 x i32], ptr %11, i64 0, i64 1
  %16 = getelementptr inbounds [3 x i32], ptr %11, i64 0, i64 2
  call void @_ZN4Cube17FactorCornerIndexEiRiS0_S0_(i32 noundef %13, ptr noundef nonnull align 4 dereferenceable(4) %14, ptr noundef nonnull align 4 dereferenceable(4) %15, ptr noundef nonnull align 4 dereferenceable(4) %16)
  store i32 0, ptr %12, align 4
  br label %17

17:                                               ; preds = %38, %5
  %18 = load i32, ptr %12, align 4
  %19 = icmp slt i32 %18, 3
  br i1 %19, label %20, label %41

20:                                               ; preds = %17
  %21 = load i32, ptr %9, align 4
  %22 = add nsw i32 %21, 1
  %23 = load i32, ptr %6, align 4
  %24 = load ptr, ptr %7, align 8
  %25 = load i32, ptr %12, align 4
  %26 = sext i32 %25 to i64
  %27 = getelementptr inbounds i32, ptr %24, i64 %26
  %28 = load i32, ptr %27, align 4
  %29 = load i32, ptr %12, align 4
  %30 = sext i32 %29 to i64
  %31 = getelementptr inbounds [3 x i32], ptr %11, i64 0, i64 %30
  %32 = load i32, ptr %31, align 4
  %33 = call noundef i32 @_ZN10BinaryNode11CornerIndexEiiii(i32 noundef %22, i32 noundef %23, i32 noundef %28, i32 noundef %32)
  %34 = load ptr, ptr %10, align 8
  %35 = load i32, ptr %12, align 4
  %36 = sext i32 %35 to i64
  %37 = getelementptr inbounds i32, ptr %34, i64 %36
  store i32 %33, ptr %37, align 4
  br label %38

38:                                               ; preds = %20
  %39 = load i32, ptr %12, align 4
  %40 = add nsw i32 %39, 1
  store i32 %40, ptr %12, align 4
  br label %17, !llvm.loop !14

41:                                               ; preds = %17
  %42 = load ptr, ptr %10, align 8
  %43 = call noundef i64 @_ZN10VertexData14CornerIndexKeyEPKi(ptr noundef %42)
  ret i64 %43
}