; Function Attrs: mustprogress uwtable
define noundef i64 @_ZN10VertexData11CornerIndexEiPKiiiPi(i32 noundef %0, ptr nocapture noundef readonly %1, i32 noundef %2, i32 noundef %3, ptr nocapture noundef %4) local_unnamed_addr #9 align 2 {
  %6 = alloca [3 x i32], align 4
  %7 = getelementptr inbounds i8, ptr %6, i64 4
  %8 = getelementptr inbounds i8, ptr %6, i64 8
  call void @_ZN4Cube17FactorCornerIndexEiRiS0_S0_(i32 noundef %2, ptr noundef nonnull align 4 dereferenceable(4) %6, ptr noundef nonnull align 4 dereferenceable(4) %7, ptr noundef nonnull align 4 dereferenceable(4) %8)
  %reass.sub = sub i32 %3, %0
  %9 = add i32 %reass.sub, 1
  br label %10

10:                                               ; preds = %5, %10
  %indvars.iv = phi i64 [ 0, %5 ], [ %indvars.iv.next, %10 ]
  %11 = getelementptr inbounds i32, ptr %1, i64 %indvars.iv
  %12 = load i32, ptr %11, align 4
  %13 = getelementptr inbounds [3 x i32], ptr %6, i64 0, i64 %indvars.iv
  %14 = load i32, ptr %13, align 4
  %15 = add nsw i32 %14, %12
  %16 = shl i32 %15, %9
  %17 = getelementptr inbounds i32, ptr %4, i64 %indvars.iv
  store i32 %16, ptr %17, align 4
  %indvars.iv.next = add nuw nsw i64 %indvars.iv, 1
  %exitcond.not = icmp eq i64 %indvars.iv.next, 3
  br i1 %exitcond.not, label %18, label %10, !llvm.loop !13

18:                                               ; preds = %10
  %19 = load i32, ptr %4, align 4
  %20 = sext i32 %19 to i64
  %21 = getelementptr inbounds i8, ptr %4, i64 4
  %22 = load i32, ptr %21, align 4
  %23 = sext i32 %22 to i64
  %24 = shl nsw i64 %23, 21
  %25 = or i64 %24, %20
  %26 = getelementptr inbounds i8, ptr %4, i64 8
  %27 = load i32, ptr %26, align 4
  %28 = zext i32 %27 to i64
  %29 = shl i64 %28, 42
  %30 = or i64 %25, %29
  ret i64 %30
}